; Function Attrs: mustprogress nofree norecurse nosync nounwind willreturn memory(argmem: readwrite) uwtable
define internal void @"_ZNSt17_Function_handlerIFN2cv8GMatDescERKNS0_10GFrameDescEEZN7GOCVBGR5Actor11extractRMatERKNS0_10MediaFrameERNS0_4RMatEE3$_0E9_M_invokeERKSt9_Any_dataS4_"(ptr dead_on_unwind noalias nocapture writable writeonly sret(%"struct.cv::GMatDesc") align 8 %0, ptr nocapture nonnull readnone align 8 %1, ptr nocapture noundef nonnull readonly align 4 dereferenceable(12) %2) #17 align 2 {
  %4 = getelementptr inbounds i8, ptr %2, i64 4
  %.val = load i64, ptr %4, align 4
  store i32 0, ptr %0, align 8, !alias.scope !130
  %5 = getelementptr inbounds i8, ptr %0, i64 4
  store i32 3, ptr %5, align 4, !alias.scope !130
  %6 = getelementptr inbounds i8, ptr %0, i64 8
  store i64 %.val, ptr %6, align 8, !alias.scope !130
  %7 = getelementptr inbounds i8, ptr %0, i64 16
  store i8 0, ptr %7, align 8, !alias.scope !130
  %8 = getelementptr inbounds i8, ptr %0, i64 24
  tail call void @llvm.memset.p0.i64(ptr noundef nonnull align 8 dereferenceable(24) %8, i8 0, i64 24, i1 false), !alias.scope !130
  ret void
}